target datalayout = "e-m:e-p270:32:32-p271:32:32-p272:64:64-i64:64-i128:128-f80:128-n8:16:32:64-S128"
target triple = "x86_64-unknown-linux-gnu"

%class.decl_plugin = type <{ ptr, ptr, i32, [4 x i8] }>
%class.symbol = type { ptr }
%class.vector.39 = type { ptr }
%class.app = type { %class.expr, ptr, i32, [0 x ptr] }
%class.expr = type { %class.ast }
%class.ast = type { i32, i24, i32, i32 }
%class.decl = type { %class.ast, %class.symbol, ptr }
%class.decl_info = type <{ i32, i32, %class.vector.39, i8, [7 x i8] }>

; Function Attrs: mustprogress nounwind uwtable
define linkonce_odr hidden noundef zeroext i1 @_ZNK9decl_info10is_decl_ofEii(ptr noundef nonnull align 8 dereferenceable(17) %this, i32 noundef %fid, i32 noundef %k) #5 comdat align 2 {
entry:
  %this.addr = alloca ptr, align 8
  %fid.addr = alloca i32, align 4
  %k.addr = alloca i32, align 4
  store ptr %this, ptr %this.addr, align 8
  store i32 %fid, ptr %fid.addr, align 4
  store i32 %k, ptr %k.addr, align 4
  %this1 = load ptr, ptr %this.addr, align 8
  %m_family_id = getelementptr inbounds %class.decl_info, ptr %this1, i32 0, i32 0
  %0 = load i32, ptr %m_family_id, align 8
  %1 = load i32, ptr %fid.addr, align 4
  %cmp = icmp eq i32 %0, %1
  br i1 %cmp, label %land.rhs, label %land.end

land.rhs:                                         ; preds = %entry
  %2 = load i32, ptr %k.addr, align 4
  %m_kind = getelementptr inbounds %class.decl_info, ptr %this1, i32 0, i32 1
  %3 = load i32, ptr %m_kind, align 4
  %cmp2 = icmp eq i32 %2, %3
  br label %land.end

land.end:                                         ; preds = %land.rhs, %entry
  %4 = phi i1 [ false, %entry ], [ %cmp2, %land.rhs ]
  ret i1 %4
}

; Function Attrs: mustprogress uwtable
define linkonce_odr hidden noundef zeroext i1 @_ZNK4decl10is_decl_ofEii(ptr noundef nonnull align 8 dereferenceable(32) %this, i32 noundef %fid, i32 noundef %k) #4 comdat align 2 {
entry:
  %this.addr = alloca ptr, align 8
  %fid.addr = alloca i32, align 4
  %k.addr = alloca i32, align 4
  store ptr %this, ptr %this.addr, align 8
  store i32 %fid, ptr %fid.addr, align 4
  store i32 %k, ptr %k.addr, align 4
  %this1 = load ptr, ptr %this.addr, align 8
  %m_info = getelementptr inbounds %class.decl, ptr %this1, i32 0, i32 2
  %0 = load ptr, ptr %m_info, align 8
  %tobool = icmp ne ptr %0, null
  br i1 %tobool, label %land.rhs, label %land.end

land.rhs:                                         ; preds = %entry
  %m_info2 = getelementptr inbounds %class.decl, ptr %this1, i32 0, i32 2
  %1 = load ptr, ptr %m_info2, align 8
  %2 = load i32, ptr %fid.addr, align 4
  %3 = load i32, ptr %k.addr, align 4
  %call = call noundef zeroext i1 @_ZNK9decl_info10is_decl_ofEii(ptr noundef nonnull align 8 dereferenceable(17) %1, i32 noundef %2, i32 noundef %3)
  br label %land.end

land.end:                                         ; preds = %land.rhs, %entry
  %4 = phi i1 [ false, %entry ], [ %call, %land.rhs ]
  ret i1 %4
}

; Function Attrs: mustprogress uwtable
define linkonce_odr hidden noundef zeroext i1 @_ZNK3app9is_app_ofEii(ptr noundef nonnull align 8 dereferenceable(32) %this, i32 noundef %fid, i32 noundef %k) #4 comdat align 2 {
entry:
  %this.addr = alloca ptr, align 8
  %fid.addr = alloca i32, align 4
  %k.addr = alloca i32, align 4
  store ptr %this, ptr %this.addr, align 8
  store i32 %fid, ptr %fid.addr, align 4
  store i32 %k, ptr %k.addr, align 4
  %this1 = load ptr, ptr %this.addr, align 8
  %m_decl = getelementptr inbounds %class.app, ptr %this1, i32 0, i32 1
  %0 = load ptr, ptr %m_decl, align 8
  %1 = load i32, ptr %fid.addr, align 4
  %2 = load i32, ptr %k.addr, align 4
  %call = call noundef zeroext i1 @_ZNK4decl10is_decl_ofEii(ptr noundef nonnull align 8 dereferenceable(32) %0, i32 noundef %1, i32 noundef %2)
  ret i1 %call
}

; Function Attrs: mustprogress nounwind uwtable
define linkonce_odr hidden noundef ptr @_Z6to_appPK3ast(ptr noundef %n) #5 comdat {
entry:
  %n.addr = alloca ptr, align 8
  store ptr %n, ptr %n.addr, align 8
  %0 = load ptr, ptr %n.addr, align 8
  ret ptr %0
}

; Function Attrs: mustprogress nounwind uwtable
define linkonce_odr hidden noundef i32 @_ZNK3ast8get_kindEv(ptr noundef nonnull align 4 dereferenceable(16) %this) #5 comdat align 2 {
entry:
  %this.addr = alloca ptr, align 8
  store ptr %this, ptr %this.addr, align 8
  %this1 = load ptr, ptr %this.addr, align 8
  %m_kind = getelementptr inbounds %class.ast, ptr %this1, i32 0, i32 1
  %bf.load = load i32, ptr %m_kind, align 4
  %bf.clear = and i32 %bf.load, 65535
  ret i32 %bf.clear
}

; Function Attrs: mustprogress uwtable
define linkonce_odr hidden noundef zeroext i1 @_Z9is_app_ofPK4exprii(ptr noundef %n, i32 noundef %fid, i32 noundef %k) #4 comdat {
entry:
  %n.addr = alloca ptr, align 8
  %fid.addr = alloca i32, align 4
  %k.addr = alloca i32, align 4
  store ptr %n, ptr %n.addr, align 8
  store i32 %fid, ptr %fid.addr, align 4
  store i32 %k, ptr %k.addr, align 4
  %0 = load ptr, ptr %n.addr, align 8
  %call = call noundef i32 @_ZNK3ast8get_kindEv(ptr noundef nonnull align 4 dereferenceable(16) %0)
  %cmp = icmp eq i32 %call, 0
  br i1 %cmp, label %land.rhs, label %land.end

land.rhs:                                         ; preds = %entry
  %1 = load ptr, ptr %n.addr, align 8
  %call1 = call noundef ptr @_Z6to_appPK3ast(ptr noundef %1)
  %2 = load i32, ptr %fid.addr, align 4
  %3 = load i32, ptr %k.addr, align 4
  %call2 = call noundef zeroext i1 @_ZNK3app9is_app_ofEii(ptr noundef nonnull align 8 dereferenceable(32) %call1, i32 noundef %2, i32 noundef %3)
  br label %land.end

land.end:                                         ; preds = %land.rhs, %entry
  %4 = phi i1 [ false, %entry ], [ %call2, %land.rhs ]
  ret i1 %4
}

; Function Attrs: mustprogress uwtable
define hidden noundef zeroext i1 @_ZN15fpa_decl_plugin13is_rm_numeralEP4exprR17mpf_rounding_mode(ptr noundef nonnull align 8 dereferenceable(1008) %this, ptr noundef %n, ptr noundef nonnull align 4 dereferenceable(4) %val) #4 align 2 {
entry:
  %retval = alloca i1, align 1
  %this.addr = alloca ptr, align 8
  %n.addr = alloca ptr, align 8
  %val.addr = alloca ptr, align 8
  store ptr %this, ptr %this.addr, align 8
  store ptr %n, ptr %n.addr, align 8
  store ptr %val, ptr %val.addr, align 8
  %this1 = load ptr, ptr %this.addr, align 8
  %0 = load ptr, ptr %n.addr, align 8
  %m_family_id = getelementptr inbounds %class.decl_plugin, ptr %this1, i32 0, i32 2
  %1 = load i32, ptr %m_family_id, align 8
  %call = call noundef zeroext i1 @_Z9is_app_ofPK4exprii(ptr noundef %0, i32 noundef %1, i32 noundef 1)
  br i1 %call, label %if.then, label %if.else

if.then:                                          ; preds = %entry
  %2 = load ptr, ptr %val.addr, align 8
  store i32 1, ptr %2, align 4
  store i1 true, ptr %retval, align 1
  br label %return

if.else:                                          ; preds = %entry
  %3 = load ptr, ptr %n.addr, align 8
  %m_family_id2 = getelementptr inbounds %class.decl_plugin, ptr %this1, i32 0, i32 2
  %4 = load i32, ptr %m_family_id2, align 8
  %call3 = call noundef zeroext i1 @_Z9is_app_ofPK4exprii(ptr noundef %3, i32 noundef %4, i32 noundef 0)
  br i1 %call3, label %if.then4, label %if.else5

if.then4:                                         ; preds = %if.else
  %5 = load ptr, ptr %val.addr, align 8
  store i32 0, ptr %5, align 4
  store i1 true, ptr %retval, align 1
  br label %return

if.else5:                                         ; preds = %if.else
  %6 = load ptr, ptr %n.addr, align 8
  %m_family_id6 = getelementptr inbounds %class.decl_plugin, ptr %this1, i32 0, i32 2
  %7 = load i32, ptr %m_family_id6, align 8
  %call7 = call noundef zeroext i1 @_Z9is_app_ofPK4exprii(ptr noundef %6, i32 noundef %7, i32 noundef 3)
  br i1 %call7, label %if.then8, label %if.else9

if.then8:                                         ; preds = %if.else5
  %8 = load ptr, ptr %val.addr, align 8
  store i32 3, ptr %8, align 4
  store i1 true, ptr %retval, align 1
  br label %return

if.else9:                                         ; preds = %if.else5
  %9 = load ptr, ptr %n.addr, align 8
  %m_family_id10 = getelementptr inbounds %class.decl_plugin, ptr %this1, i32 0, i32 2
  %10 = load i32, ptr %m_family_id10, align 8
  %call11 = call noundef zeroext i1 @_Z9is_app_ofPK4exprii(ptr noundef %9, i32 noundef %10, i32 noundef 2)
  br i1 %call11, label %if.then12, label %if.else13

if.then12:                                        ; preds = %if.else9
  %11 = load ptr, ptr %val.addr, align 8
  store i32 2, ptr %11, align 4
  store i1 true, ptr %retval, align 1
  br label %return

if.else13:                                        ; preds = %if.else9
  %12 = load ptr, ptr %n.addr, align 8
  %m_family_id14 = getelementptr inbounds %class.decl_plugin, ptr %this1, i32 0, i32 2
  %13 = load i32, ptr %m_family_id14, align 8
  %call15 = call noundef zeroext i1 @_Z9is_app_ofPK4exprii(ptr noundef %12, i32 noundef %13, i32 noundef 4)
  br i1 %call15, label %if.then16, label %if.end

if.then16:                                        ; preds = %if.else13
  %14 = load ptr, ptr %val.addr, align 8
  store i32 4, ptr %14, align 4
  store i1 true, ptr %retval, align 1
  br label %return

if.end:                                           ; preds = %if.else13
  br label %if.end17

if.end17:                                         ; preds = %if.end
  br label %if.end18

if.end18:                                         ; preds = %if.end17
  br label %if.end19

if.end19:                                         ; preds = %if.end18
  br label %if.end20

if.end20:                                         ; preds = %if.end19
  store i1 false, ptr %retval, align 1
  br label %return

return:                                           ; preds = %if.end20, %if.then16, %if.then12, %if.then8, %if.then4, %if.then
  %15 = load i1, ptr %retval, align 1
  ret i1 %15
}

; Function Attrs: mustprogress uwtable
define hidden noundef zeroext i1 @_ZN15fpa_decl_plugin13is_rm_numeralEP4expr(ptr noundef nonnull align 8 dereferenceable(1008) %this, ptr noundef %n) #4 align 2 {
entry:
  %this.addr = alloca ptr, align 8
  %n.addr = alloca ptr, align 8
  %t = alloca i32, align 4
  store ptr %this, ptr %this.addr, align 8
  store ptr %n, ptr %n.addr, align 8
  %this1 = load ptr, ptr %this.addr, align 8
  %0 = load ptr, ptr %n.addr, align 8
  %call = call noundef zeroext i1 @_ZN15fpa_decl_plugin13is_rm_numeralEP4exprR17mpf_rounding_mode(ptr noundef nonnull align 8 dereferenceable(1008) %this1, ptr noundef %0, ptr noundef nonnull align 4 dereferenceable(4) %t)
  ret i1 %call
}