; Function Attrs: mustprogress nofree norecurse nosync nounwind willreturn memory(read, inaccessiblemem: none) uwtable
define hidden noundef zeroext i1 @_ZN15fpa_decl_plugin13is_rm_numeralEP4expr(ptr nocapture noundef nonnull readonly align 8 dereferenceable(1008) %this, ptr nocapture noundef readonly %n) local_unnamed_addr #8 align 2 {
entry:
  %m_family_id.i = getelementptr inbounds i8, ptr %this, i64 16
  %0 = load i32, ptr %m_family_id.i, align 8
  %m_kind.i.i.i = getelementptr inbounds i8, ptr %n, i64 4
  %bf.load.i.i.i = load i32, ptr %m_kind.i.i.i, align 4
  %bf.clear.i.i.i = and i32 %bf.load.i.i.i, 65535
  %cmp.i.i = icmp eq i32 %bf.clear.i.i.i, 0
  br i1 %cmp.i.i, label %land.rhs.i.i, label %_ZN15fpa_decl_plugin13is_rm_numeralEP4exprR17mpf_rounding_mode.exit

land.rhs.i.i:                                     ; preds = %entry
  %m_decl.i.i.i = getelementptr inbounds i8, ptr %n, i64 16
  %1 = load ptr, ptr %m_decl.i.i.i, align 8
  %m_info.i.i.i.i = getelementptr inbounds i8, ptr %1, i64 24
  %2 = load ptr, ptr %m_info.i.i.i.i, align 8
  %tobool.not.i.i.i.i = icmp eq ptr %2, null
  br i1 %tobool.not.i.i.i.i, label %_ZN15fpa_decl_plugin13is_rm_numeralEP4exprR17mpf_rounding_mode.exit, label %_Z9is_app_ofPK4exprii.exit.i

_Z9is_app_ofPK4exprii.exit.i:                     ; preds = %land.rhs.i.i
  %3 = load i32, ptr %2, align 8
  %cmp.i.i.i.i.i = icmp eq i32 %3, %0
  %m_kind.i.i.i.i.i = getelementptr inbounds i8, ptr %2, i64 4
  %4 = load i32, ptr %m_kind.i.i.i.i.i, align 4
  %5 = icmp ult i32 %4, 5
  %or.cond3 = select i1 %cmp.i.i.i.i.i, i1 %5, i1 false
  br label %_ZN15fpa_decl_plugin13is_rm_numeralEP4exprR17mpf_rounding_mode.exit

_ZN15fpa_decl_plugin13is_rm_numeralEP4exprR17mpf_rounding_mode.exit: ; preds = %_Z9is_app_ofPK4exprii.exit.i, %entry, %land.rhs.i.i
  %retval.0.i = phi i1 [ false, %entry ], [ false, %land.rhs.i.i ], [ %or.cond3, %_Z9is_app_ofPK4exprii.exit.i ]
  ret i1 %retval.0.i
}